; Function Attrs: nounwind uwtable
define void @Res6_ManResubCheckPla(ptr noundef %0, i32 noundef %1) local_unnamed_addr #0 {
  %3 = tail call ptr @Res6_ManReadPla(ptr noundef %0)
  %4 = icmp eq ptr %3, null
  br i1 %4, label %27, label %5

5:                                                ; preds = %2
  %.not = icmp eq i32 %1, 0
  br i1 %.not, label %.critedge, label %6

6:                                                ; preds = %5
  %7 = load i32, ptr %3, align 8, !tbaa !53
  %8 = getelementptr inbounds nuw i8, ptr %3, i64 4
  %9 = load i32, ptr %8, align 4, !tbaa !37
  %10 = xor i32 %7, -1
  %11 = add i32 %9, %10
  %12 = getelementptr inbounds nuw i8, ptr %3, i64 12
  %13 = load i32, ptr %12, align 4, !tbaa !48
  %14 = getelementptr inbounds nuw i8, ptr %3, i64 16
  %15 = load i32, ptr %14, align 8, !tbaa !55
  %16 = tail call i32 (ptr, ...) @printf(ptr noundef nonnull dereferenceable(1) @.str.9, i32 noundef %7, i32 noundef %11, i32 noundef %13, i32 noundef %15)
  %17 = getelementptr inbounds nuw i8, ptr %3, i64 72
  %18 = getelementptr i8, ptr %3, i64 124
  %.val = load i32, ptr %18, align 4, !tbaa !25
  tail call void @Res6_PrintSolutionPla(ptr noundef nonnull %17, i32 noundef %.val, i32 noundef %9)
  br label %.critedge

.critedge:                                        ; preds = %5, %6
  %19 = getelementptr inbounds nuw i8, ptr %3, i64 72
  %20 = tail call i32 @Res6_FindBestEvalPla(ptr noundef nonnull readonly %3, ptr noundef nonnull readonly %19)
  %21 = icmp eq i32 %20, 0
  br i1 %21, label %22, label %23

22:                                               ; preds = %.critedge
  %puts.i = tail call i32 @puts(ptr nonnull dereferenceable(1) @str.1)
  br label %Res6_ManResubVerifyPla.exit

23:                                               ; preds = %.critedge
  %24 = getelementptr inbounds nuw i8, ptr %3, i64 16
  %25 = load i32, ptr %24, align 8, !tbaa !55
  %26 = tail call i32 (ptr, ...) @printf(ptr noundef nonnull dereferenceable(1) @.str.23, i32 noundef %20, i32 noundef %25)
  br label %Res6_ManResubVerifyPla.exit

Res6_ManResubVerifyPla.exit:                      ; preds = %22, %23
  tail call fastcc void @Res6_ManStop(ptr noundef nonnull %3)
  br label %27

27:                                               ; preds = %2, %Res6_ManResubVerifyPla.exit
  ret void
}